; ModuleID = '20/637.c'
source_filename = "20/637.c"
target datalayout = "e-m:e-p270:32:32-p271:32:32-p272:64:64-i64:64-f80:128-n8:16:32:64-S128"
target triple = "x86_64-pc-linux-gnu"

@.str = private unnamed_addr constant [4 x i8] c"%s\0A\00", align 1
@.str.1 = private unnamed_addr constant [5 x i8] c"%s%s\00", align 1

; Function Attrs: noinline nounwind uwtable
define dso_local i32 @seekmax(i8* %0) #0 {
  %2 = alloca i8*, align 8
  %3 = alloca i32, align 4
  %4 = alloca i32, align 4
  store i8* %0, i8** %2, align 8
  store i32 0, i32* %3, align 4
  store i32 1, i32* %4, align 4
  br label %5

5:                                                ; preds = %29, %1
  %6 = load i8*, i8** %2, align 8
  %7 = load i32, i32* %4, align 4
  %8 = sext i32 %7 to i64
  %9 = getelementptr inbounds i8, i8* %6, i64 %8
  %10 = load i8, i8* %9, align 1
  %11 = sext i8 %10 to i32
  %12 = icmp ne i32 %11, 0
  br i1 %12, label %13, label %32

13:                                               ; preds = %5
  %14 = load i8*, i8** %2, align 8
  %15 = load i32, i32* %4, align 4
  %16 = sext i32 %15 to i64
  %17 = getelementptr inbounds i8, i8* %14, i64 %16
  %18 = load i8, i8* %17, align 1
  %19 = sext i8 %18 to i32
  %20 = load i8*, i8** %2, align 8
  %21 = load i32, i32* %3, align 4
  %22 = sext i32 %21 to i64
  %23 = getelementptr inbounds i8, i8* %20, i64 %22
  %24 = load i8, i8* %23, align 1
  %25 = sext i8 %24 to i32
  %26 = icmp sgt i32 %19, %25
  br i1 %26, label %27, label %29

27:                                               ; preds = %13
  %28 = load i32, i32* %4, align 4
  store i32 %28, i32* %3, align 4
  br label %29

29:                                               ; preds = %27, %13
  %30 = load i32, i32* %4, align 4
  %31 = add nsw i32 %30, 1
  store i32 %31, i32* %4, align 4
  br label %5

32:                                               ; preds = %5
  %33 = load i32, i32* %3, align 4
  ret i32 %33
}

; Function Attrs: noinline nounwind uwtable
define dso_local void @insert(i8* %0, i8* %1, i32 %2) #0 {
  %4 = alloca i8*, align 8
  %5 = alloca i8*, align 8
  %6 = alloca i32, align 4
  %7 = alloca i32, align 4
  %8 = alloca i32, align 4
  store i8* %0, i8** %4, align 8
  store i8* %1, i8** %5, align 8
  store i32 %2, i32* %6, align 4
  %9 = load i8*, i8** %4, align 8
  %10 = call i64 @strlen(i8* %9) #3
  %11 = trunc i64 %10 to i32
  store i32 %11, i32* %7, align 4
  %12 = load i32, i32* %7, align 4
  store i32 %12, i32* %8, align 4
  br label %13

13:                                               ; preds = %28, %3
  %14 = load i32, i32* %8, align 4
  %15 = load i32, i32* %6, align 4
  %16 = icmp sgt i32 %14, %15
  br i1 %16, label %17, label %31

17:                                               ; preds = %13
  %18 = load i8*, i8** %4, align 8
  %19 = load i32, i32* %8, align 4
  %20 = sext i32 %19 to i64
  %21 = getelementptr inbounds i8, i8* %18, i64 %20
  %22 = load i8, i8* %21, align 1
  %23 = load i8*, i8** %4, align 8
  %24 = load i32, i32* %8, align 4
  %25 = add nsw i32 %24, 3
  %26 = sext i32 %25 to i64
  %27 = getelementptr inbounds i8, i8* %23, i64 %26
  store i8 %22, i8* %27, align 1
  br label %28

28:                                               ; preds = %17
  %29 = load i32, i32* %8, align 4
  %30 = add nsw i32 %29, -1
  store i32 %30, i32* %8, align 4
  br label %13

31:                                               ; preds = %13
  store i32 1, i32* %8, align 4
  br label %32

32:                                               ; preds = %48, %31
  %33 = load i32, i32* %8, align 4
  %34 = icmp sle i32 %33, 3
  br i1 %34, label %35, label %51

35:                                               ; preds = %32
  %36 = load i8*, i8** %5, align 8
  %37 = load i32, i32* %8, align 4
  %38 = sub nsw i32 %37, 1
  %39 = sext i32 %38 to i64
  %40 = getelementptr inbounds i8, i8* %36, i64 %39
  %41 = load i8, i8* %40, align 1
  %42 = load i8*, i8** %4, align 8
  %43 = load i32, i32* %6, align 4
  %44 = load i32, i32* %8, align 4
  %45 = add nsw i32 %43, %44
  %46 = sext i32 %45 to i64
  %47 = getelementptr inbounds i8, i8* %42, i64 %46
  store i8 %41, i8* %47, align 1
  br label %48

48:                                               ; preds = %35
  %49 = load i32, i32* %8, align 4
  %50 = add nsw i32 %49, 1
  store i32 %50, i32* %8, align 4
  br label %32

51:                                               ; preds = %32
  %52 = load i8*, i8** %4, align 8
  %53 = call i32 (i8*, ...) @printf(i8* getelementptr inbounds ([4 x i8], [4 x i8]* @.str, i64 0, i64 0), i8* %52)
  ret void
}

; Function Attrs: nounwind readonly
declare dso_local i64 @strlen(i8*) #1

declare dso_local i32 @printf(i8*, ...) #2

; Function Attrs: noinline nounwind uwtable
define dso_local void @main() #0 {
  %1 = alloca i32, align 4
  %2 = alloca i32, align 4
  %3 = alloca [15 x i8], align 1
  %4 = alloca [4 x i8], align 1
  store i32 0, i32* %1, align 4
  store i32 0, i32* %2, align 4
  br label %5

5:                                                ; preds = %10, %0
  %6 = getelementptr inbounds [15 x i8], [15 x i8]* %3, i64 0, i64 0
  %7 = getelementptr inbounds [4 x i8], [4 x i8]* %4, i64 0, i64 0
  %8 = call i32 (i8*, ...) @__isoc99_scanf(i8* getelementptr inbounds ([5 x i8], [5 x i8]* @.str.1, i64 0, i64 0), i8* %6, i8* %7)
  %9 = icmp ne i32 %8, -1
  br i1 %9, label %10, label %15

10:                                               ; preds = %5
  %11 = getelementptr inbounds [15 x i8], [15 x i8]* %3, i64 0, i64 0
  %12 = getelementptr inbounds [4 x i8], [4 x i8]* %4, i64 0, i64 0
  %13 = getelementptr inbounds [15 x i8], [15 x i8]* %3, i64 0, i64 0
  %14 = call i32 @seekmax(i8* %13)
  call void @insert(i8* %11, i8* %12, i32 %14)
  br label %5

15:                                               ; preds = %5
  ret void
}

declare dso_local i32 @__isoc99_scanf(i8*, ...) #2


!llvm.module.flags = !{!0}
!llvm.ident = !{!1}

!0 = !{i32 1, !"wchar_size", i32 4}
!1 = !{!"clang version 10.0.0-4ubuntu1 "}
